target datalayout = "e-m:e-p270:32:32-p271:32:32-p272:64:64-i64:64-i128:128-f80:128-n8:16:32:64-S128"
target triple = "x86_64-pc-linux-gnu"

%"struct.OpenSubdiv::v3_6_0::Far::TopologyDescriptor" = type { i32, i32, ptr, ptr, i32, ptr, ptr, i32, ptr, ptr, i32, ptr, i8, i32, ptr }
%"class.OpenSubdiv::v3_6_0::Far::TopologyRefiner" = type { i32, %"class.OpenSubdiv::v3_6_0::Sdc::Options", i16, [2 x i8], %"struct.OpenSubdiv::v3_6_0::Far::TopologyRefiner::UniformOptions", %"struct.OpenSubdiv::v3_6_0::Far::TopologyRefiner::AdaptiveOptions", i32, i32, i32, i32, i32, i8, %"class.std::vector", %"class.std::vector.0", %"class.std::vector.5" }
%"class.OpenSubdiv::v3_6_0::Sdc::Options" = type { i8, i8, i8, i8 }
%"struct.OpenSubdiv::v3_6_0::Far::TopologyRefiner::UniformOptions" = type { i8, [3 x i8] }
%"struct.OpenSubdiv::v3_6_0::Far::TopologyRefiner::AdaptiveOptions" = type { i16, [2 x i8] }
%"class.std::vector" = type { %"struct.std::_Vector_base" }
%"struct.std::_Vector_base" = type { %"struct.std::_Vector_base<OpenSubdiv::v3_6_0::Vtr::internal::Level *, std::allocator<OpenSubdiv::v3_6_0::Vtr::internal::Level *>>::_Vector_impl" }
%"struct.std::_Vector_base<OpenSubdiv::v3_6_0::Vtr::internal::Level *, std::allocator<OpenSubdiv::v3_6_0::Vtr::internal::Level *>>::_Vector_impl" = type { %"struct.std::_Vector_base<OpenSubdiv::v3_6_0::Vtr::internal::Level *, std::allocator<OpenSubdiv::v3_6_0::Vtr::internal::Level *>>::_Vector_impl_data" }
%"struct.std::_Vector_base<OpenSubdiv::v3_6_0::Vtr::internal::Level *, std::allocator<OpenSubdiv::v3_6_0::Vtr::internal::Level *>>::_Vector_impl_data" = type { ptr, ptr, ptr }
%"class.std::vector.0" = type { %"struct.std::_Vector_base.1" }
%"struct.std::_Vector_base.1" = type { %"struct.std::_Vector_base<OpenSubdiv::v3_6_0::Vtr::internal::Refinement *, std::allocator<OpenSubdiv::v3_6_0::Vtr::internal::Refinement *>>::_Vector_impl" }
%"struct.std::_Vector_base<OpenSubdiv::v3_6_0::Vtr::internal::Refinement *, std::allocator<OpenSubdiv::v3_6_0::Vtr::internal::Refinement *>>::_Vector_impl" = type { %"struct.std::_Vector_base<OpenSubdiv::v3_6_0::Vtr::internal::Refinement *, std::allocator<OpenSubdiv::v3_6_0::Vtr::internal::Refinement *>>::_Vector_impl_data" }
%"struct.std::_Vector_base<OpenSubdiv::v3_6_0::Vtr::internal::Refinement *, std::allocator<OpenSubdiv::v3_6_0::Vtr::internal::Refinement *>>::_Vector_impl_data" = type { ptr, ptr, ptr }
%"class.std::vector.5" = type { %"struct.std::_Vector_base.6" }
%"struct.std::_Vector_base.6" = type { %"struct.std::_Vector_base<OpenSubdiv::v3_6_0::Far::TopologyLevel, std::allocator<OpenSubdiv::v3_6_0::Far::TopologyLevel>>::_Vector_impl" }
%"struct.std::_Vector_base<OpenSubdiv::v3_6_0::Far::TopologyLevel, std::allocator<OpenSubdiv::v3_6_0::Far::TopologyLevel>>::_Vector_impl" = type { %"struct.std::_Vector_base<OpenSubdiv::v3_6_0::Far::TopologyLevel, std::allocator<OpenSubdiv::v3_6_0::Far::TopologyLevel>>::_Vector_impl_data" }
%"struct.std::_Vector_base<OpenSubdiv::v3_6_0::Far::TopologyLevel, std::allocator<OpenSubdiv::v3_6_0::Far::TopologyLevel>>::_Vector_impl_data" = type { ptr, ptr, ptr }
%"class.OpenSubdiv::v3_6_0::Vtr::Array" = type { %"class.OpenSubdiv::v3_6_0::Vtr::ConstArray.base", [4 x i8] }
%"class.OpenSubdiv::v3_6_0::Vtr::ConstArray.base" = type <{ ptr, i32 }>
%"class.OpenSubdiv::v3_6_0::Vtr::ConstArray" = type <{ ptr, i32, [4 x i8] }>
%"struct.OpenSubdiv::v3_6_0::Far::TopologyDescriptor::FVarChannel" = type { i32, ptr }

; Function Attrs: mustprogress nounwind uwtable
define linkonce_odr noundef nonnull align 8 dereferenceable(8) ptr @_ZNSt6vectorIPN10OpenSubdiv6v3_6_03Vtr8internal5LevelESaIS5_EEixEm(ptr noundef nonnull align 8 dereferenceable(24) %0, i64 noundef %1) #0 comdat align 2 {
  %3 = alloca ptr, align 8
  %4 = alloca i64, align 8
  store ptr %0, ptr %3, align 8
  store i64 %1, ptr %4, align 8
  %5 = load ptr, ptr %3, align 8
  %6 = getelementptr inbounds nuw %"struct.std::_Vector_base", ptr %5, i32 0, i32 0
  %7 = getelementptr inbounds nuw %"struct.std::_Vector_base<OpenSubdiv::v3_6_0::Vtr::internal::Level *, std::allocator<OpenSubdiv::v3_6_0::Vtr::internal::Level *>>::_Vector_impl_data", ptr %6, i32 0, i32 0
  %8 = load ptr, ptr %7, align 8
  %9 = load i64, ptr %4, align 8
  %10 = getelementptr inbounds ptr, ptr %8, i64 %9
  ret ptr %10
}

; Function Attrs: mustprogress nounwind uwtable
define linkonce_odr noundef i32 @_ZNK10OpenSubdiv6v3_6_03Vtr10ConstArrayIiE4sizeEv(ptr noundef nonnull align 8 dereferenceable(12) %0) #0 comdat align 2 {
  %2 = alloca ptr, align 8
  store ptr %0, ptr %2, align 8
  %3 = load ptr, ptr %2, align 8
  %4 = getelementptr inbounds nuw %"class.OpenSubdiv::v3_6_0::Vtr::ConstArray", ptr %3, i32 0, i32 1
  %5 = load i32, ptr %4, align 8
  ret i32 %5
}

; Function Attrs: mustprogress nounwind uwtable
define linkonce_odr noundef nonnull align 4 dereferenceable(4) ptr @_ZN10OpenSubdiv6v3_6_03Vtr5ArrayIiEixEi(ptr noundef nonnull align 8 dereferenceable(12) %0, i32 noundef %1) #0 comdat align 2 {
  %3 = alloca ptr, align 8
  %4 = alloca i32, align 4
  store ptr %0, ptr %3, align 8
  store i32 %1, ptr %4, align 4
  %5 = load ptr, ptr %3, align 8
  %6 = getelementptr inbounds nuw %"class.OpenSubdiv::v3_6_0::Vtr::ConstArray", ptr %5, i32 0, i32 0
  %7 = load ptr, ptr %6, align 8
  %8 = load i32, ptr %4, align 4
  %9 = sext i32 %8 to i64
  %10 = getelementptr inbounds i32, ptr %7, i64 %9
  ret ptr %10
}

; Function Attrs: mustprogress uwtable
define linkonce_odr { ptr, i32 } @_ZN10OpenSubdiv6v3_6_03Far22TopologyRefinerFactoryINS1_18TopologyDescriptorEE21getBaseFaceFVarValuesERNS1_15TopologyRefinerEii(ptr noundef nonnull align 8 dereferenceable(120) %0, i32 noundef %1, i32 noundef %2) #2 comdat align 2 {
  %4 = alloca %"class.OpenSubdiv::v3_6_0::Vtr::Array", align 8
  %5 = alloca ptr, align 8
  %6 = alloca i32, align 4
  %7 = alloca i32, align 4
  %8 = alloca { ptr, i32 }, align 8
  store ptr %0, ptr %5, align 8
  store i32 %1, ptr %6, align 4
  store i32 %2, ptr %7, align 4
  %9 = load ptr, ptr %5, align 8
  %10 = getelementptr inbounds nuw %"class.OpenSubdiv::v3_6_0::Far::TopologyRefiner", ptr %9, i32 0, i32 12
  %11 = call noundef nonnull align 8 dereferenceable(8) ptr @_ZNSt6vectorIPN10OpenSubdiv6v3_6_03Vtr8internal5LevelESaIS5_EEixEm(ptr noundef nonnull align 8 dereferenceable(24) %10, i64 noundef 0) #11
  %12 = load ptr, ptr %11, align 8
  %13 = load i32, ptr %6, align 4
  %14 = load i32, ptr %7, align 4
  %15 = call { ptr, i32 } @_ZN10OpenSubdiv6v3_6_03Vtr8internal5Level17getFaceFVarValuesEii(ptr noundef nonnull align 8 dereferenceable(480) %12, i32 noundef %13, i32 noundef %14)
  store { ptr, i32 } %15, ptr %8, align 8
  call void @llvm.memcpy.p0.p0.i64(ptr align 8 %4, ptr align 8 %8, i64 12, i1 false)
  %16 = load { ptr, i32 }, ptr %4, align 8
  ret { ptr, i32 } %16
}

; Function Attrs: mustprogress uwtable
define linkonce_odr noundef i32 @_ZN10OpenSubdiv6v3_6_03Far22TopologyRefinerFactoryINS1_18TopologyDescriptorEE21createBaseFVarChannelERNS1_15TopologyRefinerEi(ptr noundef nonnull align 8 dereferenceable(120) %0, i32 noundef %1) #2 comdat align 2 {
  %3 = alloca ptr, align 8
  %4 = alloca i32, align 4
  store ptr %0, ptr %3, align 8
  store i32 %1, ptr %4, align 4
  %5 = load ptr, ptr %3, align 8
  %6 = getelementptr inbounds nuw %"class.OpenSubdiv::v3_6_0::Far::TopologyRefiner", ptr %5, i32 0, i32 12
  %7 = call noundef nonnull align 8 dereferenceable(8) ptr @_ZNSt6vectorIPN10OpenSubdiv6v3_6_03Vtr8internal5LevelESaIS5_EEixEm(ptr noundef nonnull align 8 dereferenceable(24) %6, i64 noundef 0) #11
  %8 = load ptr, ptr %7, align 8
  %9 = load i32, ptr %4, align 4
  %10 = load ptr, ptr %3, align 8
  %11 = getelementptr inbounds nuw %"class.OpenSubdiv::v3_6_0::Far::TopologyRefiner", ptr %10, i32 0, i32 1
  %12 = call noundef i32 @_ZN10OpenSubdiv6v3_6_03Vtr8internal5Level17createFVarChannelEiRKNS0_3Sdc7OptionsE(ptr noundef nonnull align 8 dereferenceable(480) %8, i32 noundef %9, ptr noundef nonnull align 1 dereferenceable(4) %11)
  ret i32 %12
}

; Function Attrs: mustprogress uwtable
define noundef zeroext i1 @_ZN10OpenSubdiv6v3_6_03Far22TopologyRefinerFactoryINS1_18TopologyDescriptorEE25assignFaceVaryingTopologyERNS1_15TopologyRefinerERKS3_(ptr noundef nonnull align 8 dereferenceable(120) %0, ptr noundef nonnull align 8 dereferenceable(104) %1) #2 align 2 {
  %3 = alloca ptr, align 8
  %4 = alloca ptr, align 8
  %5 = alloca i32, align 4
  %6 = alloca i32, align 4
  %7 = alloca ptr, align 8
  %8 = alloca i32, align 4
  %9 = alloca i32, align 4
  %10 = alloca %"class.OpenSubdiv::v3_6_0::Vtr::Array", align 8
  %11 = alloca { ptr, i32 }, align 8
  %12 = alloca i32, align 4
  %13 = alloca i32, align 4
  store ptr %0, ptr %3, align 8
  store ptr %1, ptr %4, align 8
  %14 = load ptr, ptr %4, align 8
  %15 = getelementptr inbounds nuw %"struct.OpenSubdiv::v3_6_0::Far::TopologyDescriptor", ptr %14, i32 0, i32 13
  %16 = load i32, ptr %15, align 4
  %17 = icmp sgt i32 %16, 0
  br i1 %17, label %18, label %113

18:                                               ; preds = %2
  store i32 0, ptr %5, align 4
  br label %19

19:                                               ; preds = %109, %18
  %20 = load i32, ptr %5, align 4
  %21 = load ptr, ptr %4, align 8
  %22 = getelementptr inbounds nuw %"struct.OpenSubdiv::v3_6_0::Far::TopologyDescriptor", ptr %21, i32 0, i32 13
  %23 = load i32, ptr %22, align 4
  %24 = icmp slt i32 %20, %23
  br i1 %24, label %25, label %112

25:                                               ; preds = %19
  %26 = load ptr, ptr %4, align 8
  %27 = getelementptr inbounds nuw %"struct.OpenSubdiv::v3_6_0::Far::TopologyDescriptor", ptr %26, i32 0, i32 14
  %28 = load ptr, ptr %27, align 8
  %29 = load i32, ptr %5, align 4
  %30 = sext i32 %29 to i64
  %31 = getelementptr inbounds %"struct.OpenSubdiv::v3_6_0::Far::TopologyDescriptor::FVarChannel", ptr %28, i64 %30
  %32 = getelementptr inbounds nuw %"struct.OpenSubdiv::v3_6_0::Far::TopologyDescriptor::FVarChannel", ptr %31, i32 0, i32 0
  %33 = load i32, ptr %32, align 8
  store i32 %33, ptr %6, align 4
  %34 = load ptr, ptr %4, align 8
  %35 = getelementptr inbounds nuw %"struct.OpenSubdiv::v3_6_0::Far::TopologyDescriptor", ptr %34, i32 0, i32 14
  %36 = load ptr, ptr %35, align 8
  %37 = load i32, ptr %5, align 4
  %38 = sext i32 %37 to i64
  %39 = getelementptr inbounds %"struct.OpenSubdiv::v3_6_0::Far::TopologyDescriptor::FVarChannel", ptr %36, i64 %38
  %40 = getelementptr inbounds nuw %"struct.OpenSubdiv::v3_6_0::Far::TopologyDescriptor::FVarChannel", ptr %39, i32 0, i32 1
  %41 = load ptr, ptr %40, align 8
  store ptr %41, ptr %7, align 8
  %42 = load ptr, ptr %3, align 8
  %43 = load i32, ptr %6, align 4
  %44 = call noundef i32 @_ZN10OpenSubdiv6v3_6_03Far22TopologyRefinerFactoryINS1_18TopologyDescriptorEE21createBaseFVarChannelERNS1_15TopologyRefinerEi(ptr noundef nonnull align 8 dereferenceable(120) %42, i32 noundef %43)
  store i32 0, ptr %8, align 4
  store i32 0, ptr %9, align 4
  br label %45

45:                                               ; preds = %105, %25
  %46 = load i32, ptr %8, align 4
  %47 = load ptr, ptr %4, align 8
  %48 = getelementptr inbounds nuw %"struct.OpenSubdiv::v3_6_0::Far::TopologyDescriptor", ptr %47, i32 0, i32 1
  %49 = load i32, ptr %48, align 4
  %50 = icmp slt i32 %46, %49
  br i1 %50, label %51, label %108

51:                                               ; preds = %45
  %52 = load ptr, ptr %3, align 8
  %53 = load i32, ptr %8, align 4
  %54 = load i32, ptr %5, align 4
  %55 = call { ptr, i32 } @_ZN10OpenSubdiv6v3_6_03Far22TopologyRefinerFactoryINS1_18TopologyDescriptorEE21getBaseFaceFVarValuesERNS1_15TopologyRefinerEii(ptr noundef nonnull align 8 dereferenceable(120) %52, i32 noundef %53, i32 noundef %54)
  store { ptr, i32 } %55, ptr %11, align 8
  call void @llvm.memcpy.p0.p0.i64(ptr align 8 %10, ptr align 8 %11, i64 12, i1 false)
  %56 = load ptr, ptr %4, align 8
  %57 = getelementptr inbounds nuw %"struct.OpenSubdiv::v3_6_0::Far::TopologyDescriptor", ptr %56, i32 0, i32 12
  %58 = load i8, ptr %57, align 8
  %59 = trunc i8 %58 to i1
  br i1 %59, label %60, label %86

60:                                               ; preds = %51
  %61 = load ptr, ptr %7, align 8
  %62 = load i32, ptr %9, align 4
  %63 = add nsw i32 %62, 1
  store i32 %63, ptr %9, align 4
  %64 = sext i32 %62 to i64
  %65 = getelementptr inbounds i32, ptr %61, i64 %64
  %66 = load i32, ptr %65, align 4
  %67 = call noundef nonnull align 4 dereferenceable(4) ptr @_ZN10OpenSubdiv6v3_6_03Vtr5ArrayIiEixEi(ptr noundef nonnull align 8 dereferenceable(12) %10, i32 noundef 0)
  store i32 %66, ptr %67, align 4
  %68 = call noundef i32 @_ZNK10OpenSubdiv6v3_6_03Vtr10ConstArrayIiE4sizeEv(ptr noundef nonnull align 8 dereferenceable(12) %10)
  %69 = sub nsw i32 %68, 1
  store i32 %69, ptr %12, align 4
  br label %70

70:                                               ; preds = %82, %60
  %71 = load i32, ptr %12, align 4
  %72 = icmp sgt i32 %71, 0
  br i1 %72, label %73, label %85

73:                                               ; preds = %70
  %74 = load ptr, ptr %7, align 8
  %75 = load i32, ptr %9, align 4
  %76 = add nsw i32 %75, 1
  store i32 %76, ptr %9, align 4
  %77 = sext i32 %75 to i64
  %78 = getelementptr inbounds i32, ptr %74, i64 %77
  %79 = load i32, ptr %78, align 4
  %80 = load i32, ptr %12, align 4
  %81 = call noundef nonnull align 4 dereferenceable(4) ptr @_ZN10OpenSubdiv6v3_6_03Vtr5ArrayIiEixEi(ptr noundef nonnull align 8 dereferenceable(12) %10, i32 noundef %80)
  store i32 %79, ptr %81, align 4
  br label %82

82:                                               ; preds = %73
  %83 = load i32, ptr %12, align 4
  %84 = add nsw i32 %83, -1
  store i32 %84, ptr %12, align 4
  br label %70, !llvm.loop !19

85:                                               ; preds = %70
  br label %104

86:                                               ; preds = %51
  store i32 0, ptr %13, align 4
  br label %87

87:                                               ; preds = %100, %86
  %88 = load i32, ptr %13, align 4
  %89 = call noundef i32 @_ZNK10OpenSubdiv6v3_6_03Vtr10ConstArrayIiE4sizeEv(ptr noundef nonnull align 8 dereferenceable(12) %10)
  %90 = icmp slt i32 %88, %89
  br i1 %90, label %91, label %103

91:                                               ; preds = %87
  %92 = load ptr, ptr %7, align 8
  %93 = load i32, ptr %9, align 4
  %94 = add nsw i32 %93, 1
  store i32 %94, ptr %9, align 4
  %95 = sext i32 %93 to i64
  %96 = getelementptr inbounds i32, ptr %92, i64 %95
  %97 = load i32, ptr %96, align 4
  %98 = load i32, ptr %13, align 4
  %99 = call noundef nonnull align 4 dereferenceable(4) ptr @_ZN10OpenSubdiv6v3_6_03Vtr5ArrayIiEixEi(ptr noundef nonnull align 8 dereferenceable(12) %10, i32 noundef %98)
  store i32 %97, ptr %99, align 4
  br label %100

100:                                              ; preds = %91
  %101 = load i32, ptr %13, align 4
  %102 = add nsw i32 %101, 1
  store i32 %102, ptr %13, align 4
  br label %87, !llvm.loop !20

103:                                              ; preds = %87
  br label %104

104:                                              ; preds = %103, %85
  br label %105

105:                                              ; preds = %104
  %106 = load i32, ptr %8, align 4
  %107 = add nsw i32 %106, 1
  store i32 %107, ptr %8, align 4
  br label %45, !llvm.loop !21

108:                                              ; preds = %45
  br label %109

109:                                              ; preds = %108
  %110 = load i32, ptr %5, align 4
  %111 = add nsw i32 %110, 1
  store i32 %111, ptr %5, align 4
  br label %19, !llvm.loop !22

112:                                              ; preds = %19
  br label %113

113:                                              ; preds = %112, %2
  ret i1 true
}