; Function Attrs: mustprogress uwtable
define noundef zeroext i1 @_ZN10OpenSubdiv6v3_6_03Far22TopologyRefinerFactoryINS1_18TopologyDescriptorEE25assignFaceVaryingTopologyERNS1_15TopologyRefinerERKS3_(ptr noundef nonnull align 8 dereferenceable(120) %0, ptr noundef nonnull readonly align 8 captures(none) dereferenceable(104) %1) local_unnamed_addr #2 align 2 {
  %3 = getelementptr inbounds nuw i8, ptr %1, i64 92
  %4 = load i32, ptr %3, align 4
  %5 = icmp sgt i32 %4, 0
  br i1 %5, label %.lr.ph49, label %.loopexit37

.lr.ph49:                                         ; preds = %2
  %6 = getelementptr inbounds nuw i8, ptr %1, i64 96
  %7 = getelementptr inbounds nuw i8, ptr %0, i64 48
  %8 = getelementptr inbounds nuw i8, ptr %0, i64 4
  %9 = getelementptr inbounds nuw i8, ptr %1, i64 4
  %10 = getelementptr inbounds nuw i8, ptr %1, i64 88
  br label %11

11:                                               ; preds = %.lr.ph49, %._crit_edge
  %indvars.iv64 = phi i64 [ 0, %.lr.ph49 ], [ %indvars.iv.next65, %._crit_edge ]
  %12 = load ptr, ptr %6, align 8
  %13 = getelementptr inbounds nuw %"struct.OpenSubdiv::v3_6_0::Far::TopologyDescriptor::FVarChannel", ptr %12, i64 %indvars.iv64
  %14 = load i32, ptr %13, align 8
  %15 = getelementptr inbounds nuw i8, ptr %13, i64 8
  %16 = load ptr, ptr %15, align 8
  %17 = load ptr, ptr %7, align 8
  %18 = load ptr, ptr %17, align 8
  %19 = tail call noundef i32 @_ZN10OpenSubdiv6v3_6_03Vtr8internal5Level17createFVarChannelEiRKNS0_3Sdc7OptionsE(ptr noundef nonnull align 8 dereferenceable(480) %18, i32 noundef %14, ptr noundef nonnull align 1 dereferenceable(4) %8)
  %20 = load i32, ptr %9, align 4
  %21 = icmp sgt i32 %20, 0
  br i1 %21, label %.lr.ph47.preheader, label %._crit_edge

.lr.ph47.preheader:                               ; preds = %11
  %22 = trunc nuw nsw i64 %indvars.iv64 to i32
  br label %.lr.ph47

.lr.ph47:                                         ; preds = %.lr.ph47.preheader, %.loopexit
  %.03046 = phi i32 [ %46, %.loopexit ], [ 0, %.lr.ph47.preheader ]
  %.03145 = phi i32 [ %.3, %.loopexit ], [ 0, %.lr.ph47.preheader ]
  %23 = load ptr, ptr %7, align 8
  %24 = load ptr, ptr %23, align 8
  %25 = tail call { ptr, i32 } @_ZN10OpenSubdiv6v3_6_03Vtr8internal5Level17getFaceFVarValuesEii(ptr noundef nonnull align 8 dereferenceable(480) %24, i32 noundef %.03046, i32 noundef %22)
  %.fca.0.extract = extractvalue { ptr, i32 } %25, 0
  %.fca.1.extract = extractvalue { ptr, i32 } %25, 1
  %26 = load i8, ptr %10, align 8
  %27 = trunc i8 %26 to i1
  br i1 %27, label %30, label %.preheader

.preheader:                                       ; preds = %.lr.ph47
  %28 = icmp sgt i32 %.fca.1.extract, 0
  br i1 %28, label %.lr.ph.preheader, label %.loopexit

.lr.ph.preheader:                                 ; preds = %.preheader
  %29 = sext i32 %.03145 to i64
  %wide.trip.count = zext nneg i32 %.fca.1.extract to i64
  br label %.lr.ph

30:                                               ; preds = %.lr.ph47
  %31 = sext i32 %.03145 to i64
  %32 = getelementptr inbounds i32, ptr %16, i64 %31
  %33 = load i32, ptr %32, align 4
  store i32 %33, ptr %.fca.0.extract, align 4
  %.140 = add i32 %.03145, 1
  %34 = icmp sgt i32 %.fca.1.extract, 1
  br i1 %34, label %.lr.ph43.preheader, label %.loopexit

.lr.ph43.preheader:                               ; preds = %30
  %35 = sext i32 %.140 to i64
  %36 = zext nneg i32 %.fca.1.extract to i64
  br label %.lr.ph43

.lr.ph43:                                         ; preds = %.lr.ph43.preheader, %.lr.ph43
  %indvars.iv59 = phi i64 [ %36, %.lr.ph43.preheader ], [ %indvars.iv.next60, %.lr.ph43 ]
  %indvars.iv57 = phi i64 [ %35, %.lr.ph43.preheader ], [ %indvars.iv.next58, %.lr.ph43 ]
  %indvars.iv.next60 = add nsw i64 %indvars.iv59, -1
  %37 = getelementptr inbounds i32, ptr %16, i64 %indvars.iv57
  %38 = load i32, ptr %37, align 4
  %39 = getelementptr inbounds nuw i32, ptr %.fca.0.extract, i64 %indvars.iv.next60
  store i32 %38, ptr %39, align 4
  %indvars.iv.next58 = add nsw i64 %indvars.iv57, 1
  %40 = icmp samesign ugt i64 %indvars.iv59, 2
  br i1 %40, label %.lr.ph43, label %.loopexit.loopexit, !llvm.loop !25

.lr.ph:                                           ; preds = %.lr.ph.preheader, %.lr.ph
  %indvars.iv52 = phi i64 [ %29, %.lr.ph.preheader ], [ %indvars.iv.next53, %.lr.ph ]
  %indvars.iv = phi i64 [ 0, %.lr.ph.preheader ], [ %indvars.iv.next, %.lr.ph ]
  %indvars.iv.next53 = add nsw i64 %indvars.iv52, 1
  %41 = getelementptr inbounds i32, ptr %16, i64 %indvars.iv52
  %42 = load i32, ptr %41, align 4
  %43 = getelementptr inbounds nuw i32, ptr %.fca.0.extract, i64 %indvars.iv
  store i32 %42, ptr %43, align 4
  %indvars.iv.next = add nuw nsw i64 %indvars.iv, 1
  %exitcond.not = icmp eq i64 %indvars.iv.next, %wide.trip.count
  br i1 %exitcond.not, label %.loopexit.loopexit51, label %.lr.ph, !llvm.loop !26

.loopexit.loopexit:                               ; preds = %.lr.ph43
  %44 = trunc nsw i64 %indvars.iv.next58 to i32
  br label %.loopexit

.loopexit.loopexit51:                             ; preds = %.lr.ph
  %45 = trunc nsw i64 %indvars.iv.next53 to i32
  br label %.loopexit

.loopexit:                                        ; preds = %.loopexit.loopexit51, %.loopexit.loopexit, %.preheader, %30
  %.3 = phi i32 [ %.140, %30 ], [ %.03145, %.preheader ], [ %44, %.loopexit.loopexit ], [ %45, %.loopexit.loopexit51 ]
  %46 = add nuw nsw i32 %.03046, 1
  %47 = load i32, ptr %9, align 4
  %48 = icmp slt i32 %46, %47
  br i1 %48, label %.lr.ph47, label %._crit_edge, !llvm.loop !27

._crit_edge:                                      ; preds = %.loopexit, %11
  %indvars.iv.next65 = add nuw nsw i64 %indvars.iv64, 1
  %49 = load i32, ptr %3, align 4
  %50 = sext i32 %49 to i64
  %51 = icmp slt i64 %indvars.iv.next65, %50
  br i1 %51, label %11, label %.loopexit37, !llvm.loop !28

.loopexit37:                                      ; preds = %._crit_edge, %2
  ret i1 true
}